target datalayout = "e-m:e-p270:32:32-p271:32:32-p272:64:64-i64:64-i128:128-f80:128-n8:16:32:64-S128"
target triple = "x86_64-pc-linux-gnu"

%struct.pmix_data_buffer = type { ptr, ptr, ptr, i64, i64 }
%struct.pmix_byte_object = type { ptr, i64 }

; Function Attrs: nounwind uwtable
define i32 @PMIx_Data_unload(ptr noundef %0, ptr noundef %1) #0 {
  %3 = alloca i32, align 4
  %4 = alloca ptr, align 8
  %5 = alloca ptr, align 8
  store ptr %0, ptr %4, align 8, !tbaa !8
  store ptr %1, ptr %5, align 8, !tbaa !120
  %6 = load ptr, ptr %4, align 8, !tbaa !8
  %7 = icmp ne ptr %6, null
  br i1 %7, label %9, label %8

8:                                                ; preds = %2
  store i32 -27, ptr %3, align 4
  br label %88

9:                                                ; preds = %2
  %10 = load ptr, ptr %5, align 8, !tbaa !120
  %11 = icmp eq ptr null, %10
  br i1 %11, label %12, label %13

12:                                               ; preds = %9
  store i32 -27, ptr %3, align 4
  br label %88

13:                                               ; preds = %9
  %14 = load ptr, ptr %5, align 8, !tbaa !120
  call void @PMIx_Byte_object_construct(ptr noundef %14)
  %15 = load ptr, ptr %4, align 8, !tbaa !8
  %16 = getelementptr inbounds nuw %struct.pmix_data_buffer, ptr %15, i32 0, i32 0
  %17 = load ptr, ptr %16, align 8, !tbaa !61
  %18 = icmp eq ptr null, %17
  br i1 %18, label %24, label %19

19:                                               ; preds = %13
  %20 = load ptr, ptr %4, align 8, !tbaa !8
  %21 = getelementptr inbounds nuw %struct.pmix_data_buffer, ptr %20, i32 0, i32 4
  %22 = load i64, ptr %21, align 8, !tbaa !70
  %23 = icmp eq i64 0, %22
  br i1 %23, label %24, label %25

24:                                               ; preds = %19, %13
  store i32 0, ptr %3, align 4
  br label %88

25:                                               ; preds = %19
  %26 = load ptr, ptr %4, align 8, !tbaa !8
  %27 = getelementptr inbounds nuw %struct.pmix_data_buffer, ptr %26, i32 0, i32 2
  %28 = load ptr, ptr %27, align 8, !tbaa !66
  %29 = load ptr, ptr %4, align 8, !tbaa !8
  %30 = getelementptr inbounds nuw %struct.pmix_data_buffer, ptr %29, i32 0, i32 0
  %31 = load ptr, ptr %30, align 8, !tbaa !61
  %32 = icmp eq ptr %28, %31
  br i1 %32, label %33, label %48

33:                                               ; preds = %25
  %34 = load ptr, ptr %4, align 8, !tbaa !8
  %35 = getelementptr inbounds nuw %struct.pmix_data_buffer, ptr %34, i32 0, i32 0
  %36 = load ptr, ptr %35, align 8, !tbaa !61
  %37 = load ptr, ptr %5, align 8, !tbaa !120
  %38 = getelementptr inbounds nuw %struct.pmix_byte_object, ptr %37, i32 0, i32 0
  store ptr %36, ptr %38, align 8, !tbaa !122
  %39 = load ptr, ptr %4, align 8, !tbaa !8
  %40 = getelementptr inbounds nuw %struct.pmix_data_buffer, ptr %39, i32 0, i32 4
  %41 = load i64, ptr %40, align 8, !tbaa !70
  %42 = load ptr, ptr %5, align 8, !tbaa !120
  %43 = getelementptr inbounds nuw %struct.pmix_byte_object, ptr %42, i32 0, i32 1
  store i64 %41, ptr %43, align 8, !tbaa !124
  %44 = load ptr, ptr %4, align 8, !tbaa !8
  %45 = getelementptr inbounds nuw %struct.pmix_data_buffer, ptr %44, i32 0, i32 0
  store ptr null, ptr %45, align 8, !tbaa !61
  %46 = load ptr, ptr %4, align 8, !tbaa !8
  %47 = getelementptr inbounds nuw %struct.pmix_data_buffer, ptr %46, i32 0, i32 4
  store i64 0, ptr %47, align 8, !tbaa !70
  br label %85

48:                                               ; preds = %25
  %49 = load ptr, ptr %4, align 8, !tbaa !8
  %50 = getelementptr inbounds nuw %struct.pmix_data_buffer, ptr %49, i32 0, i32 4
  %51 = load i64, ptr %50, align 8, !tbaa !70
  %52 = load ptr, ptr %4, align 8, !tbaa !8
  %53 = getelementptr inbounds nuw %struct.pmix_data_buffer, ptr %52, i32 0, i32 2
  %54 = load ptr, ptr %53, align 8, !tbaa !66
  %55 = load ptr, ptr %4, align 8, !tbaa !8
  %56 = getelementptr inbounds nuw %struct.pmix_data_buffer, ptr %55, i32 0, i32 0
  %57 = load ptr, ptr %56, align 8, !tbaa !61
  %58 = ptrtoint ptr %54 to i64
  %59 = ptrtoint ptr %57 to i64
  %60 = sub i64 %58, %59
  %61 = sub i64 %51, %60
  %62 = load ptr, ptr %5, align 8, !tbaa !120
  %63 = getelementptr inbounds nuw %struct.pmix_byte_object, ptr %62, i32 0, i32 1
  store i64 %61, ptr %63, align 8, !tbaa !124
  %64 = load ptr, ptr %5, align 8, !tbaa !120
  %65 = getelementptr inbounds nuw %struct.pmix_byte_object, ptr %64, i32 0, i32 1
  %66 = load i64, ptr %65, align 8, !tbaa !124
  %67 = icmp ult i64 0, %66
  br i1 %67, label %68, label %84

68:                                               ; preds = %48
  %69 = load ptr, ptr %5, align 8, !tbaa !120
  %70 = getelementptr inbounds nuw %struct.pmix_byte_object, ptr %69, i32 0, i32 1
  %71 = load i64, ptr %70, align 8, !tbaa !124
  %72 = call noalias ptr @malloc(i64 noundef %71) #14
  %73 = load ptr, ptr %5, align 8, !tbaa !120
  %74 = getelementptr inbounds nuw %struct.pmix_byte_object, ptr %73, i32 0, i32 0
  store ptr %72, ptr %74, align 8, !tbaa !122
  %75 = load ptr, ptr %5, align 8, !tbaa !120
  %76 = getelementptr inbounds nuw %struct.pmix_byte_object, ptr %75, i32 0, i32 0
  %77 = load ptr, ptr %76, align 8, !tbaa !122
  %78 = load ptr, ptr %4, align 8, !tbaa !8
  %79 = getelementptr inbounds nuw %struct.pmix_data_buffer, ptr %78, i32 0, i32 2
  %80 = load ptr, ptr %79, align 8, !tbaa !66
  %81 = load ptr, ptr %5, align 8, !tbaa !120
  %82 = getelementptr inbounds nuw %struct.pmix_byte_object, ptr %81, i32 0, i32 1
  %83 = load i64, ptr %82, align 8, !tbaa !124
  call void @llvm.memcpy.p0.p0.i64(ptr align 1 %77, ptr align 1 %80, i64 %83, i1 false)
  br label %84

84:                                               ; preds = %68, %48
  br label %85

85:                                               ; preds = %84, %33
  %86 = load ptr, ptr %4, align 8, !tbaa !8
  call void @PMIx_Data_buffer_destruct(ptr noundef %86)
  %87 = load ptr, ptr %4, align 8, !tbaa !8
  call void @PMIx_Data_buffer_construct(ptr noundef %87)
  store i32 0, ptr %3, align 4
  br label %88

88:                                               ; preds = %85, %24, %12, %8
  %89 = load i32, ptr %3, align 4
  ret i32 %89
}