; Function Attrs: nounwind uwtable
define range(i32 -27, 1) i32 @PMIx_Data_unload(ptr noundef %0, ptr noundef %1) local_unnamed_addr #0 {
  %.not = icmp eq ptr %0, null
  %3 = icmp eq ptr %1, null
  %or.cond = or i1 %.not, %3
  br i1 %or.cond, label %25, label %4

4:                                                ; preds = %2
  tail call void @PMIx_Byte_object_construct(ptr noundef nonnull %1) #13
  %5 = load ptr, ptr %0, align 8, !tbaa !58
  %6 = icmp eq ptr %5, null
  br i1 %6, label %25, label %7

7:                                                ; preds = %4
  %8 = getelementptr inbounds nuw i8, ptr %0, i64 32
  %9 = load i64, ptr %8, align 8, !tbaa !67
  %10 = icmp eq i64 %9, 0
  br i1 %10, label %25, label %11

11:                                               ; preds = %7
  %12 = getelementptr inbounds nuw i8, ptr %0, i64 16
  %13 = load ptr, ptr %12, align 8, !tbaa !63
  %14 = icmp eq ptr %13, %5
  br i1 %14, label %15, label %17

15:                                               ; preds = %11
  store ptr %5, ptr %1, align 8, !tbaa !104
  %16 = getelementptr inbounds nuw i8, ptr %1, i64 8
  store i64 %9, ptr %16, align 8, !tbaa !106
  store ptr null, ptr %0, align 8, !tbaa !58
  store i64 0, ptr %8, align 8, !tbaa !67
  br label %24

17:                                               ; preds = %11
  %18 = ptrtoint ptr %13 to i64
  %19 = ptrtoint ptr %5 to i64
  %.neg = sub i64 %19, %18
  %20 = add i64 %.neg, %9
  %21 = getelementptr inbounds nuw i8, ptr %1, i64 8
  store i64 %20, ptr %21, align 8, !tbaa !106
  %.not31 = icmp eq i64 %20, 0
  br i1 %.not31, label %24, label %22

22:                                               ; preds = %17
  %23 = tail call noalias ptr @malloc(i64 noundef %20) #15
  store ptr %23, ptr %1, align 8, !tbaa !104
  tail call void @llvm.memcpy.p0.p0.i64(ptr align 1 %23, ptr align 1 %13, i64 %20, i1 false)
  br label %24

24:                                               ; preds = %17, %22, %15
  tail call void @PMIx_Data_buffer_destruct(ptr noundef nonnull %0) #13
  tail call void @PMIx_Data_buffer_construct(ptr noundef nonnull %0) #13
  br label %25

25:                                               ; preds = %4, %7, %2, %24
  %.0 = phi i32 [ 0, %24 ], [ -27, %2 ], [ 0, %7 ], [ 0, %4 ]
  ret i32 %.0
}